TN:
SF:/home/rehan/QuecToHarman/quectel_to_harman.cpp
FN:6,34,_Z28MapQuectelStateToHarmanStateB5cxx11i
FNDA:44,_Z28MapQuectelStateToHarmanStateB5cxx11i
FNF:1
FNH:1
DA:6,44
DA:8,44
DA:9,16
DA:12,28
DA:21,56
DA:24,0
DA:25,0
DA:26,0
DA:27,0
DA:28,0
DA:29,0
DA:30,224
DA:32,28
DA:33,28
DA:34,56
LF:15
LH:9
end_of_record
TN:
SF:/home/rehan/QuecToHarman/quectel_to_harman_test.cpp
FN:15,15,_ZN36QuectelHarmanTest_InvalidInputs_Test8TestBodyEv
FN:15,15,_ZN36QuectelHarmanTest_InvalidInputs_TestC2Ev
FN:15,15,_ZN36QuectelHarmanTest_InvalidInputs_TestD0Ev
FN:15,15,_ZN36QuectelHarmanTest_InvalidInputs_TestD2Ev
FN:21,21,_ZN37QuectelHarmanTest_BoundaryValues_Test8TestBodyEv
FN:21,21,_ZN37QuectelHarmanTest_BoundaryValues_TestC2Ev
FN:21,21,_ZN37QuectelHarmanTest_BoundaryValues_TestD0Ev
FN:21,21,_ZN37QuectelHarmanTest_BoundaryValues_TestD2Ev
FN:5,5,_ZN36QuectelHarmanTest_ValidMappings_Test8TestBodyEv
FN:5,5,_ZN36QuectelHarmanTest_ValidMappings_TestC2Ev
FN:5,5,_ZN36QuectelHarmanTest_ValidMappings_TestD0Ev
FN:5,5,_ZN36QuectelHarmanTest_ValidMappings_TestD2Ev
FNDA:2,_ZN36QuectelHarmanTest_InvalidInputs_Test8TestBodyEv
FNDA:2,_ZN36QuectelHarmanTest_InvalidInputs_TestC2Ev
FNDA:2,_ZN36QuectelHarmanTest_InvalidInputs_TestD0Ev
FNDA:2,_ZN36QuectelHarmanTest_InvalidInputs_TestD2Ev
FNDA:2,_ZN37QuectelHarmanTest_BoundaryValues_Test8TestBodyEv
FNDA:2,_ZN37QuectelHarmanTest_BoundaryValues_TestC2Ev
FNDA:2,_ZN37QuectelHarmanTest_BoundaryValues_TestD0Ev
FNDA:2,_ZN37QuectelHarmanTest_BoundaryValues_TestD2Ev
FNDA:2,_ZN36QuectelHarmanTest_ValidMappings_Test8TestBodyEv
FNDA:2,_ZN36QuectelHarmanTest_ValidMappings_TestC2Ev
FNDA:2,_ZN36QuectelHarmanTest_ValidMappings_TestD0Ev
FNDA:2,_ZN36QuectelHarmanTest_ValidMappings_TestD2Ev
FNF:12
FNH:12
DA:5,8
DA:6,2
DA:7,2
DA:8,2
DA:9,2
DA:10,2
DA:11,2
DA:12,2
DA:15,8
DA:16,2
DA:17,2
DA:18,2
DA:19,2
DA:21,8
DA:22,2
DA:23,2
DA:24,2
DA:25,2
DA:26,2
LF:19
LH:19
end_of_record
